; Function Attrs: mustprogress nounwind null_pointer_is_valid sspstrong uwtable
define void @_ZN19ExtcapOptionsDialogD2Ev(ptr noundef align 8 dereferenceable_or_null(112) initializes((0, 8), (16, 24)) %0) unnamed_addr #8 align 2 {
  store ptr getelementptr inbounds nuw inrange(-16, 456) (i8, ptr @_ZTV19ExtcapOptionsDialog, i64 16), ptr %0, align 8
  %2 = getelementptr inbounds nuw i8, ptr %0, i64 16
  store ptr getelementptr inbounds nuw inrange(-16, 64) (i8, ptr @_ZTV19ExtcapOptionsDialog, i64 488), ptr %2, align 8
  %3 = getelementptr inbounds nuw i8, ptr %0, i64 40
  %4 = load ptr, ptr %3, align 8
  %5 = icmp eq ptr %4, null
  br i1 %5, label %7, label %6

6:                                                ; preds = %1
  tail call void @_ZdlPvm(ptr noundef nonnull %4, i64 noundef 40) #28
  br label %7

7:                                                ; preds = %6, %1
  %8 = getelementptr inbounds nuw i8, ptr %0, i64 88
  %9 = load ptr, ptr %8, align 8
  %.not.i.i.i = icmp eq ptr %9, null
  br i1 %.not.i.i.i, label %_ZN5QListIP14ExtcapArgumentED2Ev.exit, label %_ZN17QArrayDataPointerIP14ExtcapArgumentE5derefEv.exit.i.i

_ZN17QArrayDataPointerIP14ExtcapArgumentE5derefEv.exit.i.i: ; preds = %7
  %10 = atomicrmw sub ptr %9, i32 1 seq_cst, align 4
  %.not.i.i = icmp eq i32 %10, 1
  br i1 %.not.i.i, label %11, label %_ZN5QListIP14ExtcapArgumentED2Ev.exit

11:                                               ; preds = %_ZN17QArrayDataPointerIP14ExtcapArgumentE5derefEv.exit.i.i
  %12 = load ptr, ptr %8, align 8
  tail call void @_ZN10QArrayData10deallocateEPS_xx(ptr noundef %12, i64 noundef 8, i64 noundef 8) #27
  br label %_ZN5QListIP14ExtcapArgumentED2Ev.exit

_ZN5QListIP14ExtcapArgumentED2Ev.exit:            ; preds = %7, %_ZN17QArrayDataPointerIP14ExtcapArgumentE5derefEv.exit.i.i, %11
  %13 = getelementptr inbounds nuw i8, ptr %0, i64 80
  tail call void @_ZN5QIconD1Ev(ptr noundef nonnull align 8 dereferenceable_or_null(8) %13) #27
  %14 = getelementptr inbounds nuw i8, ptr %0, i64 48
  %15 = load ptr, ptr %14, align 8
  %.not.i.i.i1 = icmp eq ptr %15, null
  br i1 %.not.i.i.i1, label %_ZN7QStringD2Ev.exit, label %_ZN17QArrayDataPointerIDsE5derefEv.exit.i.i

_ZN17QArrayDataPointerIDsE5derefEv.exit.i.i:      ; preds = %_ZN5QListIP14ExtcapArgumentED2Ev.exit
  %16 = atomicrmw sub ptr %15, i32 1 seq_cst, align 4
  %.not.i.i2 = icmp eq i32 %16, 1
  br i1 %.not.i.i2, label %17, label %_ZN7QStringD2Ev.exit

17:                                               ; preds = %_ZN17QArrayDataPointerIDsE5derefEv.exit.i.i
  %18 = load ptr, ptr %14, align 8
  tail call void @_ZN10QArrayData10deallocateEPS_xx(ptr noundef %18, i64 noundef 2, i64 noundef 8) #27
  br label %_ZN7QStringD2Ev.exit

_ZN7QStringD2Ev.exit:                             ; preds = %_ZN5QListIP14ExtcapArgumentED2Ev.exit, %_ZN17QArrayDataPointerIDsE5derefEv.exit.i.i, %17
  tail call void @_ZN7QDialogD2Ev(ptr noundef align 8 dereferenceable_or_null(40) %0) #27
  ret void
}